target datalayout = "e-m:e-p270:32:32-p271:32:32-p272:64:64-i64:64-i128:128-f80:128-n8:16:32:64-S128"
target triple = "x86_64-pc-linux-gnu"

%struct._object = type { %union.anon, ptr }
%union.anon = type { i64 }
%struct._longobject = type { %struct._object, %struct._PyLongValue }
%struct._PyLongValue = type { i64, [1 x i32] }
%struct.wrapperobject = type { %struct._object, ptr, ptr }

@_Py_NotImplementedStruct = external global %struct._object, align 8
@_Py_TrueStruct = external global %struct._longobject, align 8
@_Py_FalseStruct = external global %struct._longobject, align 8

; Function Attrs: inlinehint nounwind uwtable
define internal ptr @_Py_TYPE(ptr noundef %0) #3 {
  %2 = alloca ptr, align 8
  store ptr %0, ptr %2, align 8, !tbaa !4
  %3 = load ptr, ptr %2, align 8, !tbaa !4
  %4 = getelementptr inbounds nuw %struct._object, ptr %3, i32 0, i32 1
  %5 = load ptr, ptr %4, align 8, !tbaa !64
  ret ptr %5
}

; Function Attrs: inlinehint nounwind uwtable
define internal i32 @Py_IS_TYPE(ptr noundef %0, ptr noundef %1) #3 {
  %3 = alloca ptr, align 8
  %4 = alloca ptr, align 8
  store ptr %0, ptr %3, align 8, !tbaa !4
  store ptr %1, ptr %4, align 8, !tbaa !33
  %5 = load ptr, ptr %3, align 8, !tbaa !4
  %6 = call ptr @_Py_TYPE(ptr noundef %5)
  %7 = load ptr, ptr %4, align 8, !tbaa !33
  %8 = icmp eq ptr %6, %7
  %9 = zext i1 %8 to i32
  ret i32 %9
}

; Function Attrs: nounwind uwtable
define internal ptr @wrapper_richcompare(ptr noundef %0, ptr noundef %1, i32 noundef %2) #0 {
  %4 = alloca ptr, align 8
  %5 = alloca ptr, align 8
  %6 = alloca ptr, align 8
  %7 = alloca i32, align 4
  %8 = alloca ptr, align 8
  %9 = alloca ptr, align 8
  %10 = alloca i32, align 4
  %11 = alloca i32, align 4
  store ptr %0, ptr %5, align 8, !tbaa !4
  store ptr %1, ptr %6, align 8, !tbaa !4
  store i32 %2, ptr %7, align 4, !tbaa !16
  call void @llvm.lifetime.start.p0(i64 8, ptr %8) #6
  call void @llvm.lifetime.start.p0(i64 8, ptr %9) #6
  call void @llvm.lifetime.start.p0(i64 4, ptr %10) #6
  %12 = load i32, ptr %7, align 4, !tbaa !16
  %13 = icmp ne i32 %12, 2
  br i1 %13, label %14, label %17

14:                                               ; preds = %3
  %15 = load i32, ptr %7, align 4, !tbaa !16
  %16 = icmp ne i32 %15, 3
  br i1 %16, label %25, label %17

17:                                               ; preds = %14, %3
  %18 = load ptr, ptr %5, align 8, !tbaa !4
  %19 = call i32 @Py_IS_TYPE(ptr noundef %18, ptr noundef @_PyMethodWrapper_Type)
  %20 = icmp ne i32 %19, 0
  br i1 %20, label %21, label %25

21:                                               ; preds = %17
  %22 = load ptr, ptr %6, align 8, !tbaa !4
  %23 = call i32 @Py_IS_TYPE(ptr noundef %22, ptr noundef @_PyMethodWrapper_Type)
  %24 = icmp ne i32 %23, 0
  br i1 %24, label %26, label %25

25:                                               ; preds = %21, %17, %14
  store ptr @_Py_NotImplementedStruct, ptr %4, align 8
  store i32 1, ptr %11, align 4
  br label %54

26:                                               ; preds = %21
  %27 = load ptr, ptr %5, align 8, !tbaa !4
  store ptr %27, ptr %8, align 8, !tbaa !9
  %28 = load ptr, ptr %6, align 8, !tbaa !4
  store ptr %28, ptr %9, align 8, !tbaa !9
  %29 = load ptr, ptr %8, align 8, !tbaa !9
  %30 = getelementptr inbounds nuw %struct.wrapperobject, ptr %29, i32 0, i32 1
  %31 = load ptr, ptr %30, align 8, !tbaa !148
  %32 = load ptr, ptr %9, align 8, !tbaa !9
  %33 = getelementptr inbounds nuw %struct.wrapperobject, ptr %32, i32 0, i32 1
  %34 = load ptr, ptr %33, align 8, !tbaa !148
  %35 = icmp eq ptr %31, %34
  br i1 %35, label %36, label %44

36:                                               ; preds = %26
  %37 = load ptr, ptr %8, align 8, !tbaa !9
  %38 = getelementptr inbounds nuw %struct.wrapperobject, ptr %37, i32 0, i32 2
  %39 = load ptr, ptr %38, align 8, !tbaa !150
  %40 = load ptr, ptr %9, align 8, !tbaa !9
  %41 = getelementptr inbounds nuw %struct.wrapperobject, ptr %40, i32 0, i32 2
  %42 = load ptr, ptr %41, align 8, !tbaa !150
  %43 = icmp eq ptr %39, %42
  br label %44

44:                                               ; preds = %36, %26
  %45 = phi i1 [ false, %26 ], [ %43, %36 ]
  %46 = zext i1 %45 to i32
  store i32 %46, ptr %10, align 4, !tbaa !16
  %47 = load i32, ptr %10, align 4, !tbaa !16
  %48 = load i32, ptr %7, align 4, !tbaa !16
  %49 = icmp eq i32 %48, 2
  %50 = zext i1 %49 to i32
  %51 = icmp eq i32 %47, %50
  br i1 %51, label %52, label %53

52:                                               ; preds = %44
  store ptr @_Py_TrueStruct, ptr %4, align 8
  store i32 1, ptr %11, align 4
  br label %54

53:                                               ; preds = %44
  store ptr @_Py_FalseStruct, ptr %4, align 8
  store i32 1, ptr %11, align 4
  br label %54

54:                                               ; preds = %53, %52, %25
  call void @llvm.lifetime.end.p0(i64 4, ptr %10) #6
  call void @llvm.lifetime.end.p0(i64 8, ptr %9) #6
  call void @llvm.lifetime.end.p0(i64 8, ptr %8) #6
  %55 = load ptr, ptr %4, align 8
  ret ptr %55
}