; Function Attrs: mustprogress nofree norecurse nosync nounwind willreturn memory(argmem: read) uwtable
define internal nonnull ptr @wrapper_richcompare(ptr noundef readonly captures(none) %0, ptr noundef readonly captures(none) %1, i32 noundef %2) #4 {
  %4 = add i32 %2, -4
  %or.cond = icmp ult i32 %4, -2
  br i1 %or.cond, label %27, label %5

5:                                                ; preds = %3
  %6 = getelementptr i8, ptr %0, i64 8
  %.val = load ptr, ptr %6, align 8, !tbaa !19
  %.not = icmp eq ptr %.val, @_PyMethodWrapper_Type
  br i1 %.not, label %7, label %27

7:                                                ; preds = %5
  %8 = getelementptr i8, ptr %1, i64 8
  %.val14 = load ptr, ptr %8, align 8, !tbaa !19
  %.not15 = icmp eq ptr %.val14, @_PyMethodWrapper_Type
  br i1 %.not15, label %9, label %27

9:                                                ; preds = %7
  %10 = getelementptr inbounds nuw i8, ptr %0, i64 16
  %11 = load ptr, ptr %10, align 8, !tbaa !60
  %12 = getelementptr inbounds nuw i8, ptr %1, i64 16
  %13 = load ptr, ptr %12, align 8, !tbaa !60
  %14 = icmp eq ptr %11, %13
  br i1 %14, label %15, label %22

15:                                               ; preds = %9
  %16 = getelementptr inbounds nuw i8, ptr %0, i64 24
  %17 = load ptr, ptr %16, align 8, !tbaa !62
  %18 = getelementptr inbounds nuw i8, ptr %1, i64 24
  %19 = load ptr, ptr %18, align 8, !tbaa !62
  %20 = icmp eq ptr %17, %19
  %21 = zext i1 %20 to i32
  br label %22

22:                                               ; preds = %15, %9
  %23 = phi i32 [ 0, %9 ], [ %21, %15 ]
  %24 = icmp eq i32 %2, 2
  %25 = zext i1 %24 to i32
  %26 = icmp eq i32 %23, %25
  %_Py_TrueStruct._Py_FalseStruct = select i1 %26, ptr @_Py_TrueStruct, ptr @_Py_FalseStruct
  br label %27

27:                                               ; preds = %22, %5, %7, %3
  %.0 = phi ptr [ @_Py_NotImplementedStruct, %3 ], [ @_Py_NotImplementedStruct, %7 ], [ @_Py_NotImplementedStruct, %5 ], [ %_Py_TrueStruct._Py_FalseStruct, %22 ]
  ret ptr %.0
}